target datalayout = "e-m:e-p270:32:32-p271:32:32-p272:64:64-i64:64-i128:128-f80:128-n8:16:32:64-S128"
target triple = "x86_64-pc-linux-gnu"

%struct.pos = type { [4 x [4 x i16]], [4 x i16], [4 x [4 x i8]], [4 x i32], [50 x [4 x i16]], [50 x i32], [50 x %struct.moveType], i32, i32, [4 x %struct.highCardType], [4 x %struct.highCardType] }
%struct.moveType = type { i32, i32, i32, i32 }
%struct.highCardType = type { i32, i32 }
%struct.ThreadData = type { [4 x i32], i32, i8, [4 x [4 x i16]], i32, %struct.pos, i8, [50 x [4 x i16]], [13 x %struct.WinnersType], [14 x %struct.moveType], [50 x %struct.moveType], [50 x %struct.moveType], double, i32, i32, [8192 x %struct.relRanksType], ptr, %class.Moves }
%struct.WinnersType = type { i32, [4 x %struct.WinnerEntryType] }
%struct.WinnerEntryType = type { i32, i32, i32, i32, i32 }
%struct.relRanksType = type { [15 x [4 x %struct.absRankType]] }
%struct.absRankType = type { i8, i8 }
%class.Moves = type { i32, i32, i32, i32, i32, i32, i32, i32, i32, [13 x %"struct.Moves::trackType"], ptr, [13 x [4 x %struct.movePlyType]], ptr, [13 x [4 x i32]], [13 x %"class.std::__cxx11::basic_string"], [13 x [4 x %"struct.Moves::moveStatType"]], [13 x [4 x %"struct.Moves::moveStatType"]], [13 x [4 x %"struct.Moves::moveStatsType"]], [13 x [4 x %"struct.Moves::moveStatsType"]], %"struct.Moves::moveStatsType", %"struct.Moves::moveStatsType", [16 x { i64, i64 }] }
%"struct.Moves::trackType" = type { i32, i32, [4 x i32], [4 x i32], %struct.trickDataType, [4 x %struct.extCard], [4 x i32], [4 x [4 x i32]], [4 x i32] }
%struct.trickDataType = type { [4 x i32], i32, i32, i32, i32, i32 }
%struct.extCard = type { i32, i32, i32 }
%struct.movePlyType = type { [14 x %struct.moveType], i32, i32 }
%"class.std::__cxx11::basic_string" = type { %"struct.std::__cxx11::basic_string<char>::_Alloc_hider", i64, %union.anon }
%"struct.std::__cxx11::basic_string<char>::_Alloc_hider" = type { ptr }
%union.anon = type { i64, [8 x i8] }
%"struct.Moves::moveStatType" = type { i32, i32, i32, i32 }
%"struct.Moves::moveStatsType" = type { i32, [13 x %"struct.Moves::moveStatType"] }

@bitMapRank = external global [16 x i16], align 16
@_ZL9handDelta = internal constant [4 x i32] [i32 256, i32 16, i32 1, i32 0], align 16

; Function Attrs: mustprogress nounwind uwtable
define void @_Z5Undo3P3posiRK8moveType(ptr noundef %0, i32 noundef %1, ptr noundef nonnull align 4 dereferenceable(16) %2) #5 {
  %4 = alloca ptr, align 8
  %5 = alloca i32, align 4
  %6 = alloca ptr, align 8
  %7 = alloca i32, align 4
  %8 = alloca i32, align 4
  %9 = alloca i32, align 4
  store ptr %0, ptr %4, align 8
  store i32 %1, ptr %5, align 4
  store ptr %2, ptr %6, align 8
  %10 = load ptr, ptr %4, align 8
  %11 = getelementptr inbounds nuw %struct.pos, ptr %10, i32 0, i32 5
  %12 = load i32, ptr %5, align 4
  %13 = sext i32 %12 to i64
  %14 = getelementptr inbounds [50 x i32], ptr %11, i64 0, i64 %13
  %15 = load i32, ptr %14, align 4
  %16 = add nsw i32 %15, 2
  %17 = and i32 %16, 3
  store i32 %17, ptr %7, align 4
  %18 = load ptr, ptr %6, align 8
  %19 = getelementptr inbounds nuw %struct.moveType, ptr %18, i32 0, i32 0
  %20 = load i32, ptr %19, align 4
  store i32 %20, ptr %8, align 4
  %21 = load ptr, ptr %6, align 8
  %22 = getelementptr inbounds nuw %struct.moveType, ptr %21, i32 0, i32 1
  %23 = load i32, ptr %22, align 4
  store i32 %23, ptr %9, align 4
  %24 = load i32, ptr %9, align 4
  %25 = sext i32 %24 to i64
  %26 = getelementptr inbounds [16 x i16], ptr @bitMapRank, i64 0, i64 %25
  %27 = load i16, ptr %26, align 2
  %28 = zext i16 %27 to i32
  %29 = load ptr, ptr %4, align 8
  %30 = getelementptr inbounds nuw %struct.pos, ptr %29, i32 0, i32 0
  %31 = load i32, ptr %7, align 4
  %32 = sext i32 %31 to i64
  %33 = getelementptr inbounds [4 x [4 x i16]], ptr %30, i64 0, i64 %32
  %34 = load i32, ptr %8, align 4
  %35 = sext i32 %34 to i64
  %36 = getelementptr inbounds [4 x i16], ptr %33, i64 0, i64 %35
  %37 = load i16, ptr %36, align 2
  %38 = zext i16 %37 to i32
  %39 = or i32 %38, %28
  %40 = trunc i32 %39 to i16
  store i16 %40, ptr %36, align 2
  %41 = load i32, ptr %9, align 4
  %42 = sext i32 %41 to i64
  %43 = getelementptr inbounds [16 x i16], ptr @bitMapRank, i64 0, i64 %42
  %44 = load i16, ptr %43, align 2
  %45 = zext i16 %44 to i32
  %46 = load ptr, ptr %4, align 8
  %47 = getelementptr inbounds nuw %struct.pos, ptr %46, i32 0, i32 1
  %48 = load i32, ptr %8, align 4
  %49 = sext i32 %48 to i64
  %50 = getelementptr inbounds [4 x i16], ptr %47, i64 0, i64 %49
  %51 = load i16, ptr %50, align 2
  %52 = zext i16 %51 to i32
  %53 = or i32 %52, %45
  %54 = trunc i32 %53 to i16
  store i16 %54, ptr %50, align 2
  %55 = load i32, ptr %8, align 4
  %56 = sext i32 %55 to i64
  %57 = getelementptr inbounds [4 x i32], ptr @_ZL9handDelta, i64 0, i64 %56
  %58 = load i32, ptr %57, align 4
  %59 = load ptr, ptr %4, align 8
  %60 = getelementptr inbounds nuw %struct.pos, ptr %59, i32 0, i32 3
  %61 = load i32, ptr %7, align 4
  %62 = sext i32 %61 to i64
  %63 = getelementptr inbounds [4 x i32], ptr %60, i64 0, i64 %62
  %64 = load i32, ptr %63, align 4
  %65 = add nsw i32 %64, %58
  store i32 %65, ptr %63, align 4
  %66 = load ptr, ptr %4, align 8
  %67 = getelementptr inbounds nuw %struct.pos, ptr %66, i32 0, i32 2
  %68 = load i32, ptr %7, align 4
  %69 = sext i32 %68 to i64
  %70 = getelementptr inbounds [4 x [4 x i8]], ptr %67, i64 0, i64 %69
  %71 = load i32, ptr %8, align 4
  %72 = sext i32 %71 to i64
  %73 = getelementptr inbounds [4 x i8], ptr %70, i64 0, i64 %72
  %74 = load i8, ptr %73, align 1
  %75 = add i8 %74, 1
  store i8 %75, ptr %73, align 1
  ret void
}

; Function Attrs: mustprogress nounwind uwtable
define void @_Z5Make2P3posiPK8moveType(ptr noundef %0, i32 noundef %1, ptr noundef %2) #5 {
  %4 = alloca ptr, align 8
  %5 = alloca i32, align 4
  %6 = alloca ptr, align 8
  %7 = alloca i32, align 4
  %8 = alloca i32, align 4
  %9 = alloca i32, align 4
  %10 = alloca i32, align 4
  store ptr %0, ptr %4, align 8
  store i32 %1, ptr %5, align 4
  store ptr %2, ptr %6, align 8
  %11 = load ptr, ptr %4, align 8
  %12 = getelementptr inbounds nuw %struct.pos, ptr %11, i32 0, i32 5
  %13 = load i32, ptr %5, align 4
  %14 = sext i32 %13 to i64
  %15 = getelementptr inbounds [50 x i32], ptr %12, i64 0, i64 %14
  %16 = load i32, ptr %15, align 4
  store i32 %16, ptr %7, align 4
  %17 = load i32, ptr %7, align 4
  %18 = load ptr, ptr %4, align 8
  %19 = getelementptr inbounds nuw %struct.pos, ptr %18, i32 0, i32 5
  %20 = load i32, ptr %5, align 4
  %21 = sub nsw i32 %20, 1
  %22 = sext i32 %21 to i64
  %23 = getelementptr inbounds [50 x i32], ptr %19, i64 0, i64 %22
  store i32 %17, ptr %23, align 4
  %24 = load i32, ptr %7, align 4
  %25 = add nsw i32 %24, 2
  %26 = and i32 %25, 3
  store i32 %26, ptr %8, align 4
  %27 = load ptr, ptr %6, align 8
  %28 = getelementptr inbounds nuw %struct.moveType, ptr %27, i32 0, i32 0
  %29 = load i32, ptr %28, align 4
  store i32 %29, ptr %9, align 4
  %30 = load ptr, ptr %6, align 8
  %31 = getelementptr inbounds nuw %struct.moveType, ptr %30, i32 0, i32 1
  %32 = load i32, ptr %31, align 4
  store i32 %32, ptr %10, align 4
  %33 = load i32, ptr %10, align 4
  %34 = sext i32 %33 to i64
  %35 = getelementptr inbounds [16 x i16], ptr @bitMapRank, i64 0, i64 %34
  %36 = load i16, ptr %35, align 2
  %37 = zext i16 %36 to i32
  %38 = xor i32 %37, -1
  %39 = load ptr, ptr %4, align 8
  %40 = getelementptr inbounds nuw %struct.pos, ptr %39, i32 0, i32 0
  %41 = load i32, ptr %8, align 4
  %42 = sext i32 %41 to i64
  %43 = getelementptr inbounds [4 x [4 x i16]], ptr %40, i64 0, i64 %42
  %44 = load i32, ptr %9, align 4
  %45 = sext i32 %44 to i64
  %46 = getelementptr inbounds [4 x i16], ptr %43, i64 0, i64 %45
  %47 = load i16, ptr %46, align 2
  %48 = zext i16 %47 to i32
  %49 = and i32 %48, %38
  %50 = trunc i32 %49 to i16
  store i16 %50, ptr %46, align 2
  %51 = load i32, ptr %10, align 4
  %52 = sext i32 %51 to i64
  %53 = getelementptr inbounds [16 x i16], ptr @bitMapRank, i64 0, i64 %52
  %54 = load i16, ptr %53, align 2
  %55 = zext i16 %54 to i32
  %56 = load ptr, ptr %4, align 8
  %57 = getelementptr inbounds nuw %struct.pos, ptr %56, i32 0, i32 1
  %58 = load i32, ptr %9, align 4
  %59 = sext i32 %58 to i64
  %60 = getelementptr inbounds [4 x i16], ptr %57, i64 0, i64 %59
  %61 = load i16, ptr %60, align 2
  %62 = zext i16 %61 to i32
  %63 = xor i32 %62, %55
  %64 = trunc i32 %63 to i16
  store i16 %64, ptr %60, align 2
  %65 = load i32, ptr %9, align 4
  %66 = sext i32 %65 to i64
  %67 = getelementptr inbounds [4 x i32], ptr @_ZL9handDelta, i64 0, i64 %66
  %68 = load i32, ptr %67, align 4
  %69 = load ptr, ptr %4, align 8
  %70 = getelementptr inbounds nuw %struct.pos, ptr %69, i32 0, i32 3
  %71 = load i32, ptr %8, align 4
  %72 = sext i32 %71 to i64
  %73 = getelementptr inbounds [4 x i32], ptr %70, i64 0, i64 %72
  %74 = load i32, ptr %73, align 4
  %75 = sub nsw i32 %74, %68
  store i32 %75, ptr %73, align 4
  %76 = load ptr, ptr %4, align 8
  %77 = getelementptr inbounds nuw %struct.pos, ptr %76, i32 0, i32 2
  %78 = load i32, ptr %8, align 4
  %79 = sext i32 %78 to i64
  %80 = getelementptr inbounds [4 x [4 x i8]], ptr %77, i64 0, i64 %79
  %81 = load i32, ptr %9, align 4
  %82 = sext i32 %81 to i64
  %83 = getelementptr inbounds [4 x i8], ptr %80, i64 0, i64 %82
  %84 = load i8, ptr %83, align 1
  %85 = add i8 %84, -1
  store i8 %85, ptr %83, align 1
  ret void
}

; Function Attrs: mustprogress uwtable
define noundef zeroext i1 @_Z9ABsearch2P3posiiP10ThreadData(ptr noundef %0, i32 noundef %1, i32 noundef %2, ptr noundef %3) #4 {
  %5 = alloca ptr, align 8
  %6 = alloca i32, align 4
  %7 = alloca i32, align 4
  %8 = alloca ptr, align 8
  %9 = alloca i32, align 4
  %10 = alloca i8, align 1
  %11 = alloca i8, align 1
  %12 = alloca i32, align 4
  %13 = alloca i32, align 4
  %14 = alloca i32, align 4
  %15 = alloca ptr, align 8
  %16 = alloca i32, align 4
  %17 = alloca i32, align 4
  store ptr %0, ptr %5, align 8
  store i32 %1, ptr %6, align 4
  store i32 %2, ptr %7, align 4
  store ptr %3, ptr %8, align 8
  %18 = load ptr, ptr %5, align 8
  %19 = getelementptr inbounds nuw %struct.pos, ptr %18, i32 0, i32 5
  %20 = load i32, ptr %7, align 4
  %21 = sext i32 %20 to i64
  %22 = getelementptr inbounds [50 x i32], ptr %19, i64 0, i64 %21
  %23 = load i32, ptr %22, align 4
  %24 = add nsw i32 %23, 2
  %25 = and i32 %24, 3
  store i32 %25, ptr %9, align 4
  %26 = load ptr, ptr %8, align 8
  %27 = getelementptr inbounds nuw %struct.ThreadData, ptr %26, i32 0, i32 0
  %28 = load i32, ptr %9, align 4
  %29 = sext i32 %28 to i64
  %30 = getelementptr inbounds [4 x i32], ptr %27, i64 0, i64 %29
  %31 = load i32, ptr %30, align 4
  %32 = icmp eq i32 %31, 1
  %33 = select i1 %32, i1 true, i1 false
  %34 = zext i1 %33 to i8
  store i8 %34, ptr %10, align 1
  %35 = load i8, ptr %10, align 1
  %36 = trunc i8 %35 to i1
  %37 = xor i1 %36, true
  %38 = zext i1 %37 to i8
  store i8 %38, ptr %11, align 1
  %39 = load i32, ptr %7, align 4
  %40 = add nsw i32 %39, 3
  %41 = ashr i32 %40, 2
  store i32 %41, ptr %12, align 4
  store i32 0, ptr %13, align 4
  br label %42

42:                                               ; preds = %54, %4
  %43 = load i32, ptr %13, align 4
  %44 = icmp slt i32 %43, 4
  br i1 %44, label %45, label %57

45:                                               ; preds = %42
  %46 = load ptr, ptr %8, align 8
  %47 = getelementptr inbounds nuw %struct.ThreadData, ptr %46, i32 0, i32 7
  %48 = load i32, ptr %7, align 4
  %49 = sext i32 %48 to i64
  %50 = getelementptr inbounds [50 x [4 x i16]], ptr %47, i64 0, i64 %49
  %51 = load i32, ptr %13, align 4
  %52 = sext i32 %51 to i64
  %53 = getelementptr inbounds [4 x i16], ptr %50, i64 0, i64 %52
  store i16 0, ptr %53, align 2
  br label %54

54:                                               ; preds = %45
  %55 = load i32, ptr %13, align 4
  %56 = add nsw i32 %55, 1
  store i32 %56, ptr %13, align 4
  br label %42, !llvm.loop !28

57:                                               ; preds = %42
  %58 = load ptr, ptr %8, align 8
  %59 = getelementptr inbounds nuw %struct.ThreadData, ptr %58, i32 0, i32 17
  %60 = load i32, ptr %12, align 4
  %61 = load ptr, ptr %5, align 8
  %62 = call noundef i32 @_ZN5Moves10MoveGen123EiiRK3pos(ptr noundef nonnull align 8 dereferenceable(39992) %59, i32 noundef %60, i32 noundef 2, ptr noundef nonnull align 4 dereferenceable(1544) %61)
  %63 = load i32, ptr %7, align 4
  %64 = load ptr, ptr %8, align 8
  %65 = getelementptr inbounds nuw %struct.ThreadData, ptr %64, i32 0, i32 1
  %66 = load i32, ptr %65, align 8
  %67 = icmp eq i32 %63, %66
  br i1 %67, label %68, label %75

68:                                               ; preds = %57
  %69 = load ptr, ptr %8, align 8
  %70 = getelementptr inbounds nuw %struct.ThreadData, ptr %69, i32 0, i32 17
  %71 = load i32, ptr %12, align 4
  %72 = load ptr, ptr %8, align 8
  %73 = getelementptr inbounds nuw %struct.ThreadData, ptr %72, i32 0, i32 9
  %74 = getelementptr inbounds [14 x %struct.moveType], ptr %73, i64 0, i64 0
  call void @_ZN5Moves5PurgeEiiPK8moveType(ptr noundef nonnull align 8 dereferenceable(39992) %70, i32 noundef %71, i32 noundef 2, ptr noundef %74)
  br label %75

75:                                               ; preds = %68, %57
  store i32 0, ptr %14, align 4
  br label %76

76:                                               ; preds = %88, %75
  %77 = load i32, ptr %14, align 4
  %78 = icmp slt i32 %77, 4
  br i1 %78, label %79, label %91

79:                                               ; preds = %76
  %80 = load ptr, ptr %5, align 8
  %81 = getelementptr inbounds nuw %struct.pos, ptr %80, i32 0, i32 4
  %82 = load i32, ptr %7, align 4
  %83 = sext i32 %82 to i64
  %84 = getelementptr inbounds [50 x [4 x i16]], ptr %81, i64 0, i64 %83
  %85 = load i32, ptr %14, align 4
  %86 = sext i32 %85 to i64
  %87 = getelementptr inbounds [4 x i16], ptr %84, i64 0, i64 %86
  store i16 0, ptr %87, align 2
  br label %88

88:                                               ; preds = %79
  %89 = load i32, ptr %14, align 4
  %90 = add nsw i32 %89, 1
  store i32 %90, ptr %14, align 4
  br label %76, !llvm.loop !29

91:                                               ; preds = %76
  br label %92

92:                                               ; preds = %191, %91
  %93 = load ptr, ptr %8, align 8
  %94 = getelementptr inbounds nuw %struct.ThreadData, ptr %93, i32 0, i32 17
  %95 = load i32, ptr %12, align 4
  %96 = load ptr, ptr %5, align 8
  %97 = getelementptr inbounds nuw %struct.pos, ptr %96, i32 0, i32 4
  %98 = load i32, ptr %7, align 4
  %99 = sext i32 %98 to i64
  %100 = getelementptr inbounds [50 x [4 x i16]], ptr %97, i64 0, i64 %99
  %101 = getelementptr inbounds [4 x i16], ptr %100, i64 0, i64 0
  %102 = call noundef ptr @_ZN5Moves8MakeNextEiiPKt(ptr noundef nonnull align 8 dereferenceable(39992) %94, i32 noundef %95, i32 noundef 2, ptr noundef %101)
  store ptr %102, ptr %15, align 8
  %103 = load ptr, ptr %15, align 8
  %104 = icmp eq ptr %103, null
  br i1 %104, label %105, label %106

105:                                              ; preds = %92
  br label %192

106:                                              ; preds = %92
  %107 = load ptr, ptr %5, align 8
  %108 = load i32, ptr %7, align 4
  %109 = load ptr, ptr %15, align 8
  call void @_Z5Make2P3posiPK8moveType(ptr noundef %107, i32 noundef %108, ptr noundef %109)
  %110 = load ptr, ptr %5, align 8
  %111 = load i32, ptr %6, align 4
  %112 = load i32, ptr %7, align 4
  %113 = sub nsw i32 %112, 1
  %114 = load ptr, ptr %8, align 8
  %115 = call noundef zeroext i1 @_Z9ABsearch3P3posiiP10ThreadData(ptr noundef %110, i32 noundef %111, i32 noundef %113, ptr noundef %114)
  %116 = zext i1 %115 to i8
  store i8 %116, ptr %11, align 1
  %117 = load ptr, ptr %5, align 8
  %118 = load i32, ptr %7, align 4
  %119 = load ptr, ptr %15, align 8
  call void @_Z5Undo3P3posiRK8moveType(ptr noundef %117, i32 noundef %118, ptr noundef nonnull align 4 dereferenceable(16) %119)
  %120 = load i8, ptr %11, align 1
  %121 = trunc i8 %120 to i1
  %122 = zext i1 %121 to i32
  %123 = load i8, ptr %10, align 1
  %124 = trunc i8 %123 to i1
  %125 = zext i1 %124 to i32
  %126 = icmp eq i32 %122, %125
  br i1 %126, label %127, label %160

127:                                              ; preds = %106
  store i32 0, ptr %16, align 4
  br label %128

128:                                              ; preds = %150, %127
  %129 = load i32, ptr %16, align 4
  %130 = icmp slt i32 %129, 4
  br i1 %130, label %131, label %153

131:                                              ; preds = %128
  %132 = load ptr, ptr %5, align 8
  %133 = getelementptr inbounds nuw %struct.pos, ptr %132, i32 0, i32 4
  %134 = load i32, ptr %7, align 4
  %135 = sub nsw i32 %134, 1
  %136 = sext i32 %135 to i64
  %137 = getelementptr inbounds [50 x [4 x i16]], ptr %133, i64 0, i64 %136
  %138 = load i32, ptr %16, align 4
  %139 = sext i32 %138 to i64
  %140 = getelementptr inbounds [4 x i16], ptr %137, i64 0, i64 %139
  %141 = load i16, ptr %140, align 2
  %142 = load ptr, ptr %5, align 8
  %143 = getelementptr inbounds nuw %struct.pos, ptr %142, i32 0, i32 4
  %144 = load i32, ptr %7, align 4
  %145 = sext i32 %144 to i64
  %146 = getelementptr inbounds [50 x [4 x i16]], ptr %143, i64 0, i64 %145
  %147 = load i32, ptr %16, align 4
  %148 = sext i32 %147 to i64
  %149 = getelementptr inbounds [4 x i16], ptr %146, i64 0, i64 %148
  store i16 %141, ptr %149, align 2
  br label %150

150:                                              ; preds = %131
  %151 = load i32, ptr %16, align 4
  %152 = add nsw i32 %151, 1
  store i32 %152, ptr %16, align 4
  br label %128, !llvm.loop !30

153:                                              ; preds = %128
  %154 = load ptr, ptr %15, align 8
  %155 = load ptr, ptr %8, align 8
  %156 = getelementptr inbounds nuw %struct.ThreadData, ptr %155, i32 0, i32 10
  %157 = load i32, ptr %7, align 4
  %158 = sext i32 %157 to i64
  %159 = getelementptr inbounds [50 x %struct.moveType], ptr %156, i64 0, i64 %158
  call void @llvm.memcpy.p0.p0.i64(ptr align 4 %159, ptr align 4 %154, i64 16, i1 false)
  br label %193

160:                                              ; preds = %106
  store i32 0, ptr %17, align 4
  br label %161

161:                                              ; preds = %188, %160
  %162 = load i32, ptr %17, align 4
  %163 = icmp slt i32 %162, 4
  br i1 %163, label %164, label %191

164:                                              ; preds = %161
  %165 = load ptr, ptr %5, align 8
  %166 = getelementptr inbounds nuw %struct.pos, ptr %165, i32 0, i32 4
  %167 = load i32, ptr %7, align 4
  %168 = sub nsw i32 %167, 1
  %169 = sext i32 %168 to i64
  %170 = getelementptr inbounds [50 x [4 x i16]], ptr %166, i64 0, i64 %169
  %171 = load i32, ptr %17, align 4
  %172 = sext i32 %171 to i64
  %173 = getelementptr inbounds [4 x i16], ptr %170, i64 0, i64 %172
  %174 = load i16, ptr %173, align 2
  %175 = zext i16 %174 to i32
  %176 = load ptr, ptr %5, align 8
  %177 = getelementptr inbounds nuw %struct.pos, ptr %176, i32 0, i32 4
  %178 = load i32, ptr %7, align 4
  %179 = sext i32 %178 to i64
  %180 = getelementptr inbounds [50 x [4 x i16]], ptr %177, i64 0, i64 %179
  %181 = load i32, ptr %17, align 4
  %182 = sext i32 %181 to i64
  %183 = getelementptr inbounds [4 x i16], ptr %180, i64 0, i64 %182
  %184 = load i16, ptr %183, align 2
  %185 = zext i16 %184 to i32
  %186 = or i32 %185, %175
  %187 = trunc i32 %186 to i16
  store i16 %187, ptr %183, align 2
  br label %188

188:                                              ; preds = %164
  %189 = load i32, ptr %17, align 4
  %190 = add nsw i32 %189, 1
  store i32 %190, ptr %17, align 4
  br label %161, !llvm.loop !31

191:                                              ; preds = %161
  br label %92, !llvm.loop !32

192:                                              ; preds = %105
  br label %193

193:                                              ; preds = %192, %153
  %194 = load i8, ptr %11, align 1
  %195 = trunc i8 %194 to i1
  ret i1 %195
}