; Function Attrs: mustprogress uwtable
define noundef zeroext i1 @_Z9ABsearch2P3posiiP10ThreadData(ptr noundef nonnull %0, i32 noundef %1, i32 noundef %2, ptr noundef %3) local_unnamed_addr #3 {
  %5 = getelementptr inbounds nuw i8, ptr %0, i64 472
  %6 = sext i32 %2 to i64
  %7 = getelementptr inbounds [50 x i32], ptr %5, i64 0, i64 %6
  %8 = load i32, ptr %7, align 4
  %9 = and i32 %8, 3
  %10 = xor i32 %9, 2
  %11 = zext nneg i32 %10 to i64
  %12 = getelementptr inbounds [4 x i32], ptr %3, i64 0, i64 %11
  %13 = load i32, ptr %12, align 4
  %14 = icmp eq i32 %13, 1
  %15 = add nsw i32 %2, 3
  %16 = shl nsw i64 %6, 3
  %17 = getelementptr i8, ptr %3, i64 %16
  %scevgep = getelementptr i8, ptr %17, i64 1606
  store i64 0, ptr %scevgep, align 2
  %18 = xor i1 %14, true
  %19 = ashr i32 %15, 2
  %20 = getelementptr inbounds nuw i8, ptr %3, i64 987992
  %21 = tail call noundef i32 @_ZN5Moves10MoveGen123EiiRK3pos(ptr noundef nonnull align 8 dereferenceable(39992) %20, i32 noundef %19, i32 noundef 2, ptr noundef nonnull align 4 dereferenceable(1544) %0)
  %22 = getelementptr inbounds nuw i8, ptr %3, i64 16
  %23 = load i32, ptr %22, align 8
  %24 = icmp eq i32 %2, %23
  br i1 %24, label %25, label %.preheader66

25:                                               ; preds = %4
  %26 = getelementptr inbounds nuw i8, ptr %3, i64 3100
  tail call void @_ZN5Moves5PurgeEiiPK8moveType(ptr noundef nonnull align 8 dereferenceable(39992) %20, i32 noundef %19, i32 noundef 2, ptr noundef nonnull %26)
  br label %.preheader66

.preheader66:                                     ; preds = %25, %4
  %27 = getelementptr i8, ptr %0, i64 %16
  %scevgep82 = getelementptr i8, ptr %27, i64 72
  store i64 0, ptr %scevgep82, align 2
  %28 = getelementptr inbounds nuw i8, ptr %0, i64 72
  %29 = getelementptr inbounds [50 x [4 x i16]], ptr %28, i64 0, i64 %6
  %30 = tail call noundef ptr @_ZN5Moves8MakeNextEiiPKt(ptr noundef nonnull align 8 dereferenceable(39992) %20, i32 noundef %19, i32 noundef 2, ptr noundef nonnull %29)
  %31 = icmp eq ptr %30, null
  br i1 %31, label %.loopexit67, label %.lr.ph

.lr.ph:                                           ; preds = %.preheader66
  %32 = add nsw i32 %2, -1
  %33 = sext i32 %32 to i64
  %34 = getelementptr inbounds [50 x i32], ptr %5, i64 0, i64 %33
  %35 = getelementptr inbounds nuw i8, ptr %0, i64 32
  %36 = getelementptr inbounds nuw i8, ptr %0, i64 56
  %37 = getelementptr inbounds nuw i8, ptr %0, i64 40
  br label %40

.loopexit:                                        ; preds = %.preheader65
  %38 = tail call noundef ptr @_ZN5Moves8MakeNextEiiPKt(ptr noundef nonnull align 8 dereferenceable(39992) %20, i32 noundef %19, i32 noundef 2, ptr noundef nonnull %29)
  %39 = icmp eq ptr %38, null
  br i1 %39, label %.loopexit67, label %40, !llvm.loop !19

40:                                               ; preds = %.lr.ph, %.loopexit
  %41 = phi ptr [ %30, %.lr.ph ], [ %38, %.loopexit ]
  %42 = load i32, ptr %7, align 4
  store i32 %42, ptr %34, align 4
  %43 = and i32 %42, 3
  %44 = xor i32 %43, 2
  %45 = load i32, ptr %41, align 4
  %46 = getelementptr inbounds nuw i8, ptr %41, i64 4
  %47 = load i32, ptr %46, align 4
  %48 = sext i32 %47 to i64
  %49 = getelementptr inbounds [16 x i16], ptr @bitMapRank, i64 0, i64 %48
  %50 = load i16, ptr %49, align 2
  %51 = xor i16 %50, -1
  %52 = zext nneg i32 %44 to i64
  %53 = sext i32 %45 to i64
  %54 = getelementptr inbounds [4 x [4 x i16]], ptr %0, i64 0, i64 %52, i64 %53
  %55 = load i16, ptr %54, align 2
  %56 = and i16 %55, %51
  store i16 %56, ptr %54, align 2
  %57 = load i16, ptr %49, align 2
  %58 = getelementptr inbounds [4 x i16], ptr %35, i64 0, i64 %53
  %59 = load i16, ptr %58, align 2
  %60 = xor i16 %59, %57
  store i16 %60, ptr %58, align 2
  %61 = getelementptr inbounds [4 x i32], ptr @_ZL9handDelta, i64 0, i64 %53
  %62 = load i32, ptr %61, align 4
  %63 = getelementptr inbounds [4 x i32], ptr %36, i64 0, i64 %52
  %64 = load i32, ptr %63, align 4
  %65 = sub nsw i32 %64, %62
  store i32 %65, ptr %63, align 4
  %66 = getelementptr inbounds [4 x [4 x i8]], ptr %37, i64 0, i64 %52, i64 %53
  %67 = load i8, ptr %66, align 1
  %68 = add i8 %67, -1
  store i8 %68, ptr %66, align 1
  %69 = tail call noundef zeroext i1 @_Z9ABsearch3P3posiiP10ThreadData(ptr noundef nonnull %0, i32 noundef %1, i32 noundef %32, ptr noundef %3)
  %70 = load i32, ptr %7, align 4
  %71 = and i32 %70, 3
  %72 = xor i32 %71, 2
  %73 = load i32, ptr %41, align 4
  %74 = load i32, ptr %46, align 4
  %75 = sext i32 %74 to i64
  %76 = getelementptr inbounds [16 x i16], ptr @bitMapRank, i64 0, i64 %75
  %77 = load i16, ptr %76, align 2
  %78 = zext nneg i32 %72 to i64
  %79 = sext i32 %73 to i64
  %80 = getelementptr inbounds [4 x [4 x i16]], ptr %0, i64 0, i64 %78, i64 %79
  %81 = load i16, ptr %80, align 2
  %82 = or i16 %81, %77
  store i16 %82, ptr %80, align 2
  %83 = load i16, ptr %76, align 2
  %84 = getelementptr inbounds [4 x i16], ptr %35, i64 0, i64 %79
  %85 = load i16, ptr %84, align 2
  %86 = or i16 %85, %83
  store i16 %86, ptr %84, align 2
  %87 = getelementptr inbounds [4 x i32], ptr @_ZL9handDelta, i64 0, i64 %79
  %88 = load i32, ptr %87, align 4
  %89 = getelementptr inbounds [4 x i32], ptr %36, i64 0, i64 %78
  %90 = load i32, ptr %89, align 4
  %91 = add nsw i32 %90, %88
  store i32 %91, ptr %89, align 4
  %92 = getelementptr inbounds [4 x [4 x i8]], ptr %37, i64 0, i64 %78, i64 %79
  %93 = load i8, ptr %92, align 1
  %94 = add i8 %93, 1
  store i8 %94, ptr %92, align 1
  %95 = xor i1 %14, %69
  br i1 %95, label %.preheader65, label %.preheader

.preheader:                                       ; preds = %40, %.preheader
  %indvars.iv87 = phi i64 [ %indvars.iv.next88, %.preheader ], [ 0, %40 ]
  %96 = getelementptr inbounds [50 x [4 x i16]], ptr %28, i64 0, i64 %33, i64 %indvars.iv87
  %97 = load i16, ptr %96, align 2
  %98 = getelementptr inbounds [50 x [4 x i16]], ptr %28, i64 0, i64 %6, i64 %indvars.iv87
  store i16 %97, ptr %98, align 2
  %indvars.iv.next88 = add nuw nsw i64 %indvars.iv87, 1
  %exitcond90.not = icmp eq i64 %indvars.iv.next88, 4
  br i1 %exitcond90.not, label %99, label %.preheader, !llvm.loop !20

99:                                               ; preds = %.preheader
  %100 = getelementptr inbounds nuw i8, ptr %3, i64 3324
  %101 = getelementptr inbounds [50 x %struct.moveType], ptr %100, i64 0, i64 %6
  tail call void @llvm.memcpy.p0.p0.i64(ptr noundef nonnull align 4 dereferenceable(16) %101, ptr noundef nonnull align 4 dereferenceable(16) %41, i64 16, i1 false)
  br label %.loopexit67

.preheader65:                                     ; preds = %40, %.preheader65
  %indvars.iv = phi i64 [ %indvars.iv.next, %.preheader65 ], [ 0, %40 ]
  %102 = getelementptr inbounds [50 x [4 x i16]], ptr %28, i64 0, i64 %33, i64 %indvars.iv
  %103 = load i16, ptr %102, align 2
  %104 = getelementptr inbounds [50 x [4 x i16]], ptr %28, i64 0, i64 %6, i64 %indvars.iv
  %105 = load i16, ptr %104, align 2
  %106 = or i16 %105, %103
  store i16 %106, ptr %104, align 2
  %indvars.iv.next = add nuw nsw i64 %indvars.iv, 1
  %exitcond.not = icmp eq i64 %indvars.iv.next, 4
  br i1 %exitcond.not, label %.loopexit, label %.preheader65, !llvm.loop !21

.loopexit67:                                      ; preds = %.loopexit, %.preheader66, %99
  %.1 = phi i1 [ %69, %99 ], [ %18, %.preheader66 ], [ %69, %.loopexit ]
  ret i1 %.1
}